target datalayout = "e-m:e-p270:32:32-p271:32:32-p272:64:64-i64:64-i128:128-f80:128-n8:16:32:64-S128"
target triple = "x86_64-pc-linux-gnu"

%struct.AVFilterPad = type { ptr, i32, i32, %union.anon, ptr, ptr, ptr }
%union.anon = type { ptr }
%union.anon.0 = type { ptr }
%union.anon.2 = type { i64 }
%struct.AVFilterLink = type { ptr, ptr, ptr, ptr, i32, i32, i32, i32, %struct.AVRational, i32, i32, i32, %struct.AVChannelLayout, %struct.AVRational, ptr, i32, %struct.AVFilterFormatsConfig, %struct.AVFilterFormatsConfig }
%struct.AVChannelLayout = type { i32, i32, %union.anon.1, ptr }
%union.anon.1 = type { i64 }
%struct.AVRational = type { i32, i32 }
%struct.AVFilterFormatsConfig = type { ptr, ptr, ptr, ptr, ptr }
%struct.AVFilterContext = type { ptr, ptr, ptr, ptr, ptr, i32, ptr, ptr, i32, ptr, ptr, i32, i32, ptr, ptr, ptr, ptr, i32, ptr, i32, i32 }
%struct.AVFrame = type { [8 x ptr], [8 x i32], ptr, i32, i32, i32, i32, i32, %struct.AVRational, i64, i64, %struct.AVRational, i32, ptr, i32, i32, [8 x ptr], ptr, i32, ptr, i32, i32, i32, i32, i32, i32, i32, i64, ptr, i32, ptr, ptr, i64, i64, i64, i64, ptr, %struct.AVChannelLayout, i64 }
%struct.FieldContext = type { ptr, i32, i32 }

@.str = private unnamed_addr constant [6 x i8] c"field\00", align 1
@.str.1 = private unnamed_addr constant [38 x i8] c"Extract a field from the input video.\00", align 1
@field_inputs = internal constant [1 x %struct.AVFilterPad] [%struct.AVFilterPad { ptr @.str.2, i32 0, i32 0, %union.anon zeroinitializer, ptr @filter_frame, ptr null, ptr null }], align 16
@field_outputs = internal constant [1 x %struct.AVFilterPad] [%struct.AVFilterPad { ptr @.str.2, i32 0, i32 0, %union.anon zeroinitializer, ptr null, ptr null, ptr @config_props_output }], align 16
@ff_vf_field = constant { { ptr, ptr, ptr, ptr, ptr, i32, [4 x i8] }, i8, i8, i8, [5 x i8], ptr, ptr, ptr, %union.anon.0, i32, i32, ptr, ptr } { { ptr, ptr, ptr, ptr, ptr, i32, [4 x i8] } { ptr @.str, ptr @.str.1, ptr @field_inputs, ptr @field_outputs, ptr @field_class, i32 0, [4 x i8] zeroinitializer }, i8 1, i8 1, i8 0, [5 x i8] zeroinitializer, ptr null, ptr null, ptr null, %union.anon.0 zeroinitializer, i32 16, i32 0, ptr null, ptr null }, align 8
@.str.2 = private unnamed_addr constant [8 x i8] c"default\00", align 1
@.str.3 = private unnamed_addr constant [32 x i8] c"w:%d h:%d type:%s -> w:%d h:%d\0A\00", align 1
@.str.4 = private unnamed_addr constant [7 x i8] c"bottom\00", align 1
@.str.5 = private unnamed_addr constant [4 x i8] c"top\00", align 1
@field_class = internal constant { ptr, ptr, ptr, i32, i32, i32, i32, ptr, ptr, ptr, ptr, i32, [4 x i8] } { ptr @.str, ptr @av_default_item_name, ptr @field_options, i32 3932772, i32 0, i32 0, i32 7, ptr null, ptr null, ptr null, ptr null, i32 0, [4 x i8] zeroinitializer }, align 8
@.str.7 = private unnamed_addr constant [5 x i8] c"type\00", align 1
@.str.8 = private unnamed_addr constant [31 x i8] c"set field type (top or bottom)\00", align 1
@.str.9 = private unnamed_addr constant [11 x i8] c"field_type\00", align 1
@.str.10 = private unnamed_addr constant [17 x i8] c"select top field\00", align 1
@.str.11 = private unnamed_addr constant [20 x i8] c"select bottom field\00", align 1
@field_options = internal constant [4 x { ptr, ptr, i32, i32, %union.anon.2, double, double, i32, [4 x i8], ptr }] [{ ptr, ptr, i32, i32, %union.anon.2, double, double, i32, [4 x i8], ptr } { ptr @.str.7, ptr @.str.8, i32 8, i32 2, %union.anon.2 zeroinitializer, double 0.000000e+00, double 1.000000e+00, i32 65552, [4 x i8] zeroinitializer, ptr @.str.9 }, { ptr, ptr, i32, i32, %union.anon.2, double, double, i32, [4 x i8], ptr } { ptr @.str.5, ptr @.str.10, i32 0, i32 11, %union.anon.2 zeroinitializer, double 0xC1E0000000000000, double 0x41DFFFFFFFC00000, i32 65552, [4 x i8] zeroinitializer, ptr @.str.9 }, { ptr, ptr, i32, i32, %union.anon.2, double, double, i32, [4 x i8], ptr } { ptr @.str.4, ptr @.str.11, i32 0, i32 11, %union.anon.2 { i64 1 }, double 0xC1E0000000000000, double 0x41DFFFFFFFC00000, i32 65552, [4 x i8] zeroinitializer, ptr @.str.9 }, { ptr, ptr, i32, i32, %union.anon.2, double, double, i32, [4 x i8], ptr } zeroinitializer], align 16

; Function Attrs: nounwind uwtable
define internal i32 @filter_frame(ptr noundef %0, ptr noundef %1) #0 {
  %3 = alloca ptr, align 8
  %4 = alloca ptr, align 8
  %5 = alloca ptr, align 8
  %6 = alloca ptr, align 8
  %7 = alloca i32, align 4
  store ptr %0, ptr %3, align 8, !tbaa !4
  store ptr %1, ptr %4, align 8, !tbaa !9
  call void @llvm.lifetime.start.p0(i64 8, ptr %5) #3
  %8 = load ptr, ptr %3, align 8, !tbaa !4
  %9 = getelementptr inbounds nuw %struct.AVFilterLink, ptr %8, i32 0, i32 2
  %10 = load ptr, ptr %9, align 8, !tbaa !11
  %11 = getelementptr inbounds nuw %struct.AVFilterContext, ptr %10, i32 0, i32 9
  %12 = load ptr, ptr %11, align 8, !tbaa !23
  store ptr %12, ptr %5, align 8, !tbaa !33
  call void @llvm.lifetime.start.p0(i64 8, ptr %6) #3
  %13 = load ptr, ptr %3, align 8, !tbaa !4
  %14 = getelementptr inbounds nuw %struct.AVFilterLink, ptr %13, i32 0, i32 2
  %15 = load ptr, ptr %14, align 8, !tbaa !11
  %16 = getelementptr inbounds nuw %struct.AVFilterContext, ptr %15, i32 0, i32 7
  %17 = load ptr, ptr %16, align 8, !tbaa !35
  %18 = getelementptr inbounds ptr, ptr %17, i64 0
  %19 = load ptr, ptr %18, align 8, !tbaa !4
  store ptr %19, ptr %6, align 8, !tbaa !4
  call void @llvm.lifetime.start.p0(i64 4, ptr %7) #3
  %20 = load ptr, ptr %6, align 8, !tbaa !4
  %21 = getelementptr inbounds nuw %struct.AVFilterLink, ptr %20, i32 0, i32 7
  %22 = load i32, ptr %21, align 4, !tbaa !36
  %23 = load ptr, ptr %4, align 8, !tbaa !9
  %24 = getelementptr inbounds nuw %struct.AVFrame, ptr %23, i32 0, i32 4
  store i32 %22, ptr %24, align 4, !tbaa !37
  %25 = load ptr, ptr %4, align 8, !tbaa !9
  %26 = getelementptr inbounds nuw %struct.AVFrame, ptr %25, i32 0, i32 21
  %27 = load i32, ptr %26, align 4, !tbaa !43
  %28 = and i32 %27, -9
  store i32 %28, ptr %26, align 4, !tbaa !43
  store i32 0, ptr %7, align 4, !tbaa !44
  br label %29

29:                                               ; preds = %73, %2
  %30 = load i32, ptr %7, align 4, !tbaa !44
  %31 = load ptr, ptr %5, align 8, !tbaa !33
  %32 = getelementptr inbounds nuw %struct.FieldContext, ptr %31, i32 0, i32 2
  %33 = load i32, ptr %32, align 4, !tbaa !45
  %34 = icmp slt i32 %30, %33
  br i1 %34, label %35, label %76

35:                                               ; preds = %29
  %36 = load ptr, ptr %5, align 8, !tbaa !33
  %37 = getelementptr inbounds nuw %struct.FieldContext, ptr %36, i32 0, i32 1
  %38 = load i32, ptr %37, align 8, !tbaa !47
  %39 = icmp eq i32 %38, 1
  br i1 %39, label %40, label %60

40:                                               ; preds = %35
  %41 = load ptr, ptr %4, align 8, !tbaa !9
  %42 = getelementptr inbounds nuw %struct.AVFrame, ptr %41, i32 0, i32 0
  %43 = load i32, ptr %7, align 4, !tbaa !44
  %44 = sext i32 %43 to i64
  %45 = getelementptr inbounds [8 x ptr], ptr %42, i64 0, i64 %44
  %46 = load ptr, ptr %45, align 8, !tbaa !48
  %47 = load ptr, ptr %4, align 8, !tbaa !9
  %48 = getelementptr inbounds nuw %struct.AVFrame, ptr %47, i32 0, i32 1
  %49 = load i32, ptr %7, align 4, !tbaa !44
  %50 = sext i32 %49 to i64
  %51 = getelementptr inbounds [8 x i32], ptr %48, i64 0, i64 %50
  %52 = load i32, ptr %51, align 4, !tbaa !44
  %53 = sext i32 %52 to i64
  %54 = getelementptr inbounds i8, ptr %46, i64 %53
  %55 = load ptr, ptr %4, align 8, !tbaa !9
  %56 = getelementptr inbounds nuw %struct.AVFrame, ptr %55, i32 0, i32 0
  %57 = load i32, ptr %7, align 4, !tbaa !44
  %58 = sext i32 %57 to i64
  %59 = getelementptr inbounds [8 x ptr], ptr %56, i64 0, i64 %58
  store ptr %54, ptr %59, align 8, !tbaa !48
  br label %60

60:                                               ; preds = %40, %35
  %61 = load ptr, ptr %4, align 8, !tbaa !9
  %62 = getelementptr inbounds nuw %struct.AVFrame, ptr %61, i32 0, i32 1
  %63 = load i32, ptr %7, align 4, !tbaa !44
  %64 = sext i32 %63 to i64
  %65 = getelementptr inbounds [8 x i32], ptr %62, i64 0, i64 %64
  %66 = load i32, ptr %65, align 4, !tbaa !44
  %67 = mul nsw i32 2, %66
  %68 = load ptr, ptr %4, align 8, !tbaa !9
  %69 = getelementptr inbounds nuw %struct.AVFrame, ptr %68, i32 0, i32 1
  %70 = load i32, ptr %7, align 4, !tbaa !44
  %71 = sext i32 %70 to i64
  %72 = getelementptr inbounds [8 x i32], ptr %69, i64 0, i64 %71
  store i32 %67, ptr %72, align 4, !tbaa !44
  br label %73

73:                                               ; preds = %60
  %74 = load i32, ptr %7, align 4, !tbaa !44
  %75 = add nsw i32 %74, 1
  store i32 %75, ptr %7, align 4, !tbaa !44
  br label %29, !llvm.loop !49

76:                                               ; preds = %29
  %77 = load ptr, ptr %6, align 8, !tbaa !4
  %78 = load ptr, ptr %4, align 8, !tbaa !9
  %79 = call i32 @ff_filter_frame(ptr noundef %77, ptr noundef %78)
  call void @llvm.lifetime.end.p0(i64 4, ptr %7) #3
  call void @llvm.lifetime.end.p0(i64 8, ptr %6) #3
  call void @llvm.lifetime.end.p0(i64 8, ptr %5) #3
  ret i32 %79
}

; Function Attrs: nocallback nofree nosync nounwind willreturn memory(argmem: readwrite)
declare void @llvm.lifetime.start.p0(i64 immarg, ptr captures(none)) #1

declare i32 @ff_filter_frame(ptr noundef, ptr noundef) #2

; Function Attrs: nocallback nofree nosync nounwind willreturn memory(argmem: readwrite)
declare void @llvm.lifetime.end.p0(i64 immarg, ptr captures(none)) #1

; Function Attrs: nounwind uwtable
define internal i32 @config_props_output(ptr noundef %0) #0 {
  %2 = alloca ptr, align 8
  %3 = alloca ptr, align 8
  %4 = alloca ptr, align 8
  %5 = alloca ptr, align 8
  store ptr %0, ptr %2, align 8, !tbaa !4
  call void @llvm.lifetime.start.p0(i64 8, ptr %3) #3
  %6 = load ptr, ptr %2, align 8, !tbaa !4
  %7 = getelementptr inbounds nuw %struct.AVFilterLink, ptr %6, i32 0, i32 0
  %8 = load ptr, ptr %7, align 8, !tbaa !51
  store ptr %8, ptr %3, align 8, !tbaa !52
  call void @llvm.lifetime.start.p0(i64 8, ptr %4) #3
  %9 = load ptr, ptr %3, align 8, !tbaa !52
  %10 = getelementptr inbounds nuw %struct.AVFilterContext, ptr %9, i32 0, i32 9
  %11 = load ptr, ptr %10, align 8, !tbaa !23
  store ptr %11, ptr %4, align 8, !tbaa !33
  call void @llvm.lifetime.start.p0(i64 8, ptr %5) #3
  %12 = load ptr, ptr %3, align 8, !tbaa !52
  %13 = getelementptr inbounds nuw %struct.AVFilterContext, ptr %12, i32 0, i32 4
  %14 = load ptr, ptr %13, align 8, !tbaa !53
  %15 = getelementptr inbounds ptr, ptr %14, i64 0
  %16 = load ptr, ptr %15, align 8, !tbaa !4
  store ptr %16, ptr %5, align 8, !tbaa !4
  %17 = load ptr, ptr %2, align 8, !tbaa !4
  %18 = getelementptr inbounds nuw %struct.AVFilterLink, ptr %17, i32 0, i32 5
  %19 = load i32, ptr %18, align 4, !tbaa !54
  %20 = call i32 @av_pix_fmt_count_planes(i32 noundef %19)
  %21 = load ptr, ptr %4, align 8, !tbaa !33
  %22 = getelementptr inbounds nuw %struct.FieldContext, ptr %21, i32 0, i32 2
  store i32 %20, ptr %22, align 4, !tbaa !45
  %23 = load ptr, ptr %5, align 8, !tbaa !4
  %24 = getelementptr inbounds nuw %struct.AVFilterLink, ptr %23, i32 0, i32 6
  %25 = load i32, ptr %24, align 8, !tbaa !55
  %26 = load ptr, ptr %2, align 8, !tbaa !4
  %27 = getelementptr inbounds nuw %struct.AVFilterLink, ptr %26, i32 0, i32 6
  store i32 %25, ptr %27, align 8, !tbaa !55
  %28 = load ptr, ptr %5, align 8, !tbaa !4
  %29 = getelementptr inbounds nuw %struct.AVFilterLink, ptr %28, i32 0, i32 7
  %30 = load i32, ptr %29, align 4, !tbaa !36
  %31 = load ptr, ptr %4, align 8, !tbaa !33
  %32 = getelementptr inbounds nuw %struct.FieldContext, ptr %31, i32 0, i32 1
  %33 = load i32, ptr %32, align 8, !tbaa !47
  %34 = icmp eq i32 %33, 0
  %35 = zext i1 %34 to i32
  %36 = add nsw i32 %30, %35
  %37 = sdiv i32 %36, 2
  %38 = load ptr, ptr %2, align 8, !tbaa !4
  %39 = getelementptr inbounds nuw %struct.AVFilterLink, ptr %38, i32 0, i32 7
  store i32 %37, ptr %39, align 4, !tbaa !36
  %40 = load ptr, ptr %3, align 8, !tbaa !52
  %41 = load ptr, ptr %5, align 8, !tbaa !4
  %42 = getelementptr inbounds nuw %struct.AVFilterLink, ptr %41, i32 0, i32 6
  %43 = load i32, ptr %42, align 8, !tbaa !55
  %44 = load ptr, ptr %5, align 8, !tbaa !4
  %45 = getelementptr inbounds nuw %struct.AVFilterLink, ptr %44, i32 0, i32 7
  %46 = load i32, ptr %45, align 4, !tbaa !36
  %47 = load ptr, ptr %4, align 8, !tbaa !33
  %48 = getelementptr inbounds nuw %struct.FieldContext, ptr %47, i32 0, i32 1
  %49 = load i32, ptr %48, align 8, !tbaa !47
  %50 = icmp eq i32 %49, 1
  %51 = select i1 %50, ptr @.str.4, ptr @.str.5
  %52 = load ptr, ptr %2, align 8, !tbaa !4
  %53 = getelementptr inbounds nuw %struct.AVFilterLink, ptr %52, i32 0, i32 6
  %54 = load i32, ptr %53, align 8, !tbaa !55
  %55 = load ptr, ptr %2, align 8, !tbaa !4
  %56 = getelementptr inbounds nuw %struct.AVFilterLink, ptr %55, i32 0, i32 7
  %57 = load i32, ptr %56, align 4, !tbaa !36
  call void (ptr, i32, ptr, ...) @av_log(ptr noundef %40, i32 noundef 40, ptr noundef @.str.3, i32 noundef %43, i32 noundef %46, ptr noundef %51, i32 noundef %54, i32 noundef %57)
  call void @llvm.lifetime.end.p0(i64 8, ptr %5) #3
  call void @llvm.lifetime.end.p0(i64 8, ptr %4) #3
  call void @llvm.lifetime.end.p0(i64 8, ptr %3) #3
  ret i32 0
}

declare i32 @av_pix_fmt_count_planes(i32 noundef) #2

declare void @av_log(ptr noundef, i32 noundef, ptr noundef, ...) #2

declare ptr @av_default_item_name(ptr noundef) #2


!llvm.module.flags = !{!0, !1, !2, !3}

!0 = !{i32 1, !"wchar_size", i32 4}
!1 = !{i32 8, !"PIC Level", i32 2}
!2 = !{i32 7, !"uwtable", i32 2}
!3 = !{i32 1, !"override-stack-alignment", i32 16}
!4 = !{!5, !5, i64 0}
!5 = !{!"p1 _ZTS12AVFilterLink", !6, i64 0}
!6 = !{!"any pointer", !7, i64 0}
!7 = !{!"omnipotent char", !8, i64 0}
!8 = !{!"Simple C/C++ TBAA"}
!9 = !{!10, !10, i64 0}
!10 = !{!"p1 _ZTS7AVFrame", !6, i64 0}
!11 = !{!12, !13, i64 16}
!12 = !{!"AVFilterLink", !13, i64 0, !14, i64 8, !13, i64 16, !14, i64 24, !15, i64 32, !15, i64 36, !15, i64 40, !15, i64 44, !16, i64 48, !15, i64 56, !15, i64 60, !15, i64 64, !17, i64 72, !16, i64 96, !18, i64 104, !15, i64 112, !20, i64 120, !20, i64 160}
!13 = !{!"p1 _ZTS15AVFilterContext", !6, i64 0}
!14 = !{!"p1 _ZTS11AVFilterPad", !6, i64 0}
!15 = !{!"int", !7, i64 0}
!16 = !{!"AVRational", !15, i64 0, !15, i64 4}
!17 = !{!"AVChannelLayout", !15, i64 0, !15, i64 4, !7, i64 8, !6, i64 16}
!18 = !{!"p2 _ZTS15AVFrameSideData", !19, i64 0}
!19 = !{!"any p2 pointer", !6, i64 0}
!20 = !{!"AVFilterFormatsConfig", !21, i64 0, !21, i64 8, !22, i64 16, !21, i64 24, !21, i64 32}
!21 = !{!"p1 _ZTS15AVFilterFormats", !6, i64 0}
!22 = !{!"p1 _ZTS22AVFilterChannelLayouts", !6, i64 0}
!23 = !{!24, !6, i64 72}
!24 = !{!"AVFilterContext", !25, i64 0, !26, i64 8, !27, i64 16, !14, i64 24, !28, i64 32, !15, i64 40, !14, i64 48, !28, i64 56, !15, i64 64, !6, i64 72, !29, i64 80, !15, i64 88, !15, i64 92, !30, i64 96, !27, i64 104, !6, i64 112, !31, i64 120, !15, i64 128, !32, i64 136, !15, i64 144, !15, i64 148}
!25 = !{!"p1 _ZTS7AVClass", !6, i64 0}
!26 = !{!"p1 _ZTS8AVFilter", !6, i64 0}
!27 = !{!"p1 omnipotent char", !6, i64 0}
!28 = !{!"p2 _ZTS12AVFilterLink", !19, i64 0}
!29 = !{!"p1 _ZTS13AVFilterGraph", !6, i64 0}
!30 = !{!"p1 _ZTS15AVFilterCommand", !6, i64 0}
!31 = !{!"p1 double", !6, i64 0}
!32 = !{!"p1 _ZTS11AVBufferRef", !6, i64 0}
!33 = !{!34, !34, i64 0}
!34 = !{!"p1 _ZTS12FieldContext", !6, i64 0}
!35 = !{!24, !28, i64 56}
!36 = !{!12, !15, i64 44}
!37 = !{!38, !15, i64 108}
!38 = !{!"AVFrame", !7, i64 0, !7, i64 64, !39, i64 96, !15, i64 104, !15, i64 108, !15, i64 112, !15, i64 116, !15, i64 120, !16, i64 124, !40, i64 136, !40, i64 144, !16, i64 152, !15, i64 160, !6, i64 168, !15, i64 176, !15, i64 180, !7, i64 184, !41, i64 248, !15, i64 256, !18, i64 264, !15, i64 272, !15, i64 276, !15, i64 280, !15, i64 284, !15, i64 288, !15, i64 292, !15, i64 296, !40, i64 304, !42, i64 312, !15, i64 320, !32, i64 328, !32, i64 336, !40, i64 344, !40, i64 352, !40, i64 360, !40, i64 368, !6, i64 376, !17, i64 384, !40, i64 408}
!39 = !{!"p2 omnipotent char", !19, i64 0}
!40 = !{!"long", !7, i64 0}
!41 = !{!"p2 _ZTS11AVBufferRef", !19, i64 0}
!42 = !{!"p1 _ZTS12AVDictionary", !6, i64 0}
!43 = !{!38, !15, i64 276}
!44 = !{!15, !15, i64 0}
!45 = !{!46, !15, i64 12}
!46 = !{!"FieldContext", !25, i64 0, !15, i64 8, !15, i64 12}
!47 = !{!46, !15, i64 8}
!48 = !{!27, !27, i64 0}
!49 = distinct !{!49, !50}
!50 = !{!"llvm.loop.mustprogress"}
!51 = !{!12, !13, i64 0}
!52 = !{!13, !13, i64 0}
!53 = !{!24, !28, i64 32}
!54 = !{!12, !15, i64 36}
!55 = !{!12, !15, i64 40}
