; ModuleID = 'bench/ffmpeg/original/vf_field.ll'
source_filename = "bench/ffmpeg/original/vf_field.ll"
target datalayout = "e-m:e-p270:32:32-p271:32:32-p272:64:64-i64:64-i128:128-f80:128-n8:16:32:64-S128"
target triple = "x86_64-pc-linux-gnu"

%struct.AVFilterPad = type { ptr, i32, i32, %union.anon, ptr, ptr, ptr }
%union.anon = type { ptr }
%union.anon.0 = type { ptr }
%union.anon.2 = type { i64 }

@.str = private unnamed_addr constant [6 x i8] c"field\00", align 1
@.str.1 = private unnamed_addr constant [38 x i8] c"Extract a field from the input video.\00", align 1
@field_inputs = internal constant [1 x %struct.AVFilterPad] [%struct.AVFilterPad { ptr @.str.2, i32 0, i32 0, %union.anon zeroinitializer, ptr @filter_frame, ptr null, ptr null }], align 16
@field_outputs = internal constant [1 x %struct.AVFilterPad] [%struct.AVFilterPad { ptr @.str.2, i32 0, i32 0, %union.anon zeroinitializer, ptr null, ptr null, ptr @config_props_output }], align 16
@ff_vf_field = local_unnamed_addr constant { { ptr, ptr, ptr, ptr, ptr, i32, [4 x i8] }, i8, i8, i8, [5 x i8], ptr, ptr, ptr, %union.anon.0, i32, i32, ptr, ptr } { { ptr, ptr, ptr, ptr, ptr, i32, [4 x i8] } { ptr @.str, ptr @.str.1, ptr @field_inputs, ptr @field_outputs, ptr @field_class, i32 0, [4 x i8] zeroinitializer }, i8 1, i8 1, i8 0, [5 x i8] zeroinitializer, ptr null, ptr null, ptr null, %union.anon.0 zeroinitializer, i32 16, i32 0, ptr null, ptr null }, align 8
@.str.2 = private unnamed_addr constant [8 x i8] c"default\00", align 1
@.str.3 = private unnamed_addr constant [32 x i8] c"w:%d h:%d type:%s -> w:%d h:%d\0A\00", align 1
@.str.4 = private unnamed_addr constant [7 x i8] c"bottom\00", align 1
@.str.5 = private unnamed_addr constant [4 x i8] c"top\00", align 1
@field_class = internal constant { ptr, ptr, ptr, i32, i32, i32, i32, ptr, ptr, ptr, ptr, i32, [4 x i8] } { ptr @.str, ptr @av_default_item_name, ptr @field_options, i32 3932772, i32 0, i32 0, i32 7, ptr null, ptr null, ptr null, ptr null, i32 0, [4 x i8] zeroinitializer }, align 8
@.str.7 = private unnamed_addr constant [5 x i8] c"type\00", align 1
@.str.8 = private unnamed_addr constant [31 x i8] c"set field type (top or bottom)\00", align 1
@.str.9 = private unnamed_addr constant [11 x i8] c"field_type\00", align 1
@.str.10 = private unnamed_addr constant [17 x i8] c"select top field\00", align 1
@.str.11 = private unnamed_addr constant [20 x i8] c"select bottom field\00", align 1
@field_options = internal constant [4 x { ptr, ptr, i32, i32, %union.anon.2, double, double, i32, [4 x i8], ptr }] [{ ptr, ptr, i32, i32, %union.anon.2, double, double, i32, [4 x i8], ptr } { ptr @.str.7, ptr @.str.8, i32 8, i32 2, %union.anon.2 zeroinitializer, double 0.000000e+00, double 1.000000e+00, i32 65552, [4 x i8] zeroinitializer, ptr @.str.9 }, { ptr, ptr, i32, i32, %union.anon.2, double, double, i32, [4 x i8], ptr } { ptr @.str.5, ptr @.str.10, i32 0, i32 11, %union.anon.2 zeroinitializer, double 0xC1E0000000000000, double 0x41DFFFFFFFC00000, i32 65552, [4 x i8] zeroinitializer, ptr @.str.9 }, { ptr, ptr, i32, i32, %union.anon.2, double, double, i32, [4 x i8], ptr } { ptr @.str.4, ptr @.str.11, i32 0, i32 11, %union.anon.2 { i64 1 }, double 0xC1E0000000000000, double 0x41DFFFFFFFC00000, i32 65552, [4 x i8] zeroinitializer, ptr @.str.9 }, { ptr, ptr, i32, i32, %union.anon.2, double, double, i32, [4 x i8], ptr } zeroinitializer], align 16

; Function Attrs: nounwind uwtable
define internal i32 @filter_frame(ptr noundef readonly captures(none) %0, ptr noundef initializes((108, 112)) %1) #0 {
  %3 = getelementptr inbounds nuw i8, ptr %0, i64 16
  %4 = load ptr, ptr %3, align 8, !tbaa !4
  %5 = getelementptr inbounds nuw i8, ptr %4, i64 72
  %6 = load ptr, ptr %5, align 8, !tbaa !19
  %7 = getelementptr inbounds nuw i8, ptr %4, i64 56
  %8 = load ptr, ptr %7, align 8, !tbaa !29
  %9 = load ptr, ptr %8, align 8, !tbaa !30
  %10 = getelementptr inbounds nuw i8, ptr %9, i64 44
  %11 = load i32, ptr %10, align 4, !tbaa !32
  %12 = getelementptr inbounds nuw i8, ptr %1, i64 108
  store i32 %11, ptr %12, align 4, !tbaa !33
  %13 = getelementptr inbounds nuw i8, ptr %1, i64 276
  %14 = load i32, ptr %13, align 4, !tbaa !39
  %15 = and i32 %14, -9
  store i32 %15, ptr %13, align 4, !tbaa !39
  %16 = getelementptr inbounds nuw i8, ptr %6, i64 12
  %17 = load i32, ptr %16, align 4, !tbaa !40
  %18 = icmp sgt i32 %17, 0
  br i1 %18, label %.lr.ph, label %._crit_edge

.lr.ph:                                           ; preds = %2
  %19 = getelementptr inbounds nuw i8, ptr %6, i64 8
  %20 = getelementptr inbounds nuw i8, ptr %1, i64 64
  br label %21

21:                                               ; preds = %.lr.ph, %31
  %indvars.iv = phi i64 [ 0, %.lr.ph ], [ %indvars.iv.next, %31 ]
  %22 = load i32, ptr %19, align 8, !tbaa !42
  %23 = icmp eq i32 %22, 1
  br i1 %23, label %24, label %._crit_edge22

._crit_edge22:                                    ; preds = %21
  %.phi.trans.insert = getelementptr inbounds nuw [8 x i32], ptr %20, i64 0, i64 %indvars.iv
  %.pre = load i32, ptr %.phi.trans.insert, align 4, !tbaa !43
  br label %31

24:                                               ; preds = %21
  %25 = getelementptr inbounds nuw [8 x ptr], ptr %1, i64 0, i64 %indvars.iv
  %26 = load ptr, ptr %25, align 8, !tbaa !44
  %27 = getelementptr inbounds nuw [8 x i32], ptr %20, i64 0, i64 %indvars.iv
  %28 = load i32, ptr %27, align 4, !tbaa !43
  %29 = sext i32 %28 to i64
  %30 = getelementptr inbounds i8, ptr %26, i64 %29
  store ptr %30, ptr %25, align 8, !tbaa !44
  br label %31

31:                                               ; preds = %._crit_edge22, %24
  %32 = phi i32 [ %.pre, %._crit_edge22 ], [ %28, %24 ]
  %33 = getelementptr inbounds nuw [8 x i32], ptr %20, i64 0, i64 %indvars.iv
  %34 = shl nsw i32 %32, 1
  store i32 %34, ptr %33, align 4, !tbaa !43
  %indvars.iv.next = add nuw nsw i64 %indvars.iv, 1
  %35 = load i32, ptr %16, align 4, !tbaa !40
  %36 = sext i32 %35 to i64
  %37 = icmp slt i64 %indvars.iv.next, %36
  br i1 %37, label %21, label %._crit_edge, !llvm.loop !45

._crit_edge:                                      ; preds = %31, %2
  %38 = tail call i32 @ff_filter_frame(ptr noundef %9, ptr noundef nonnull %1) #2
  ret i32 %38
}

declare i32 @ff_filter_frame(ptr noundef, ptr noundef) local_unnamed_addr #1

; Function Attrs: nounwind uwtable
define internal noundef i32 @config_props_output(ptr noundef captures(none) initializes((40, 48)) %0) #0 {
  %2 = load ptr, ptr %0, align 8, !tbaa !47
  %3 = getelementptr inbounds nuw i8, ptr %2, i64 72
  %4 = load ptr, ptr %3, align 8, !tbaa !19
  %5 = getelementptr inbounds nuw i8, ptr %2, i64 32
  %6 = load ptr, ptr %5, align 8, !tbaa !48
  %7 = load ptr, ptr %6, align 8, !tbaa !30
  %8 = getelementptr inbounds nuw i8, ptr %0, i64 36
  %9 = load i32, ptr %8, align 4, !tbaa !49
  %10 = tail call i32 @av_pix_fmt_count_planes(i32 noundef %9) #2
  %11 = getelementptr inbounds nuw i8, ptr %4, i64 12
  store i32 %10, ptr %11, align 4, !tbaa !40
  %12 = getelementptr inbounds nuw i8, ptr %7, i64 40
  %13 = load i32, ptr %12, align 8, !tbaa !50
  %14 = getelementptr inbounds nuw i8, ptr %0, i64 40
  store i32 %13, ptr %14, align 8, !tbaa !50
  %15 = getelementptr inbounds nuw i8, ptr %7, i64 44
  %16 = load i32, ptr %15, align 4, !tbaa !32
  %17 = getelementptr inbounds nuw i8, ptr %4, i64 8
  %18 = load i32, ptr %17, align 8, !tbaa !42
  %19 = icmp eq i32 %18, 0
  %20 = zext i1 %19 to i32
  %21 = add nsw i32 %16, %20
  %22 = sdiv i32 %21, 2
  %23 = getelementptr inbounds nuw i8, ptr %0, i64 44
  store i32 %22, ptr %23, align 4, !tbaa !32
  %24 = load i32, ptr %15, align 4, !tbaa !32
  %25 = icmp eq i32 %18, 1
  %26 = select i1 %25, ptr @.str.4, ptr @.str.5
  tail call void (ptr, i32, ptr, ...) @av_log(ptr noundef %2, i32 noundef 40, ptr noundef nonnull @.str.3, i32 noundef %13, i32 noundef %24, ptr noundef nonnull %26, i32 noundef %13, i32 noundef %22) #2
  ret i32 0
}

declare i32 @av_pix_fmt_count_planes(i32 noundef) local_unnamed_addr #1

declare void @av_log(ptr noundef, i32 noundef, ptr noundef, ...) local_unnamed_addr #1

declare ptr @av_default_item_name(ptr noundef) #1


!llvm.module.flags = !{!0, !1, !2, !3}

!0 = !{i32 1, !"wchar_size", i32 4}
!1 = !{i32 8, !"PIC Level", i32 2}
!2 = !{i32 7, !"uwtable", i32 2}
!3 = !{i32 1, !"override-stack-alignment", i32 16}
!4 = !{!5, !6, i64 16}
!5 = !{!"AVFilterLink", !6, i64 0, !10, i64 8, !6, i64 16, !10, i64 24, !11, i64 32, !11, i64 36, !11, i64 40, !11, i64 44, !12, i64 48, !11, i64 56, !11, i64 60, !11, i64 64, !13, i64 72, !12, i64 96, !14, i64 104, !11, i64 112, !16, i64 120, !16, i64 160}
!6 = !{!"p1 _ZTS15AVFilterContext", !7, i64 0}
!7 = !{!"any pointer", !8, i64 0}
!8 = !{!"omnipotent char", !9, i64 0}
!9 = !{!"Simple C/C++ TBAA"}
!10 = !{!"p1 _ZTS11AVFilterPad", !7, i64 0}
!11 = !{!"int", !8, i64 0}
!12 = !{!"AVRational", !11, i64 0, !11, i64 4}
!13 = !{!"AVChannelLayout", !11, i64 0, !11, i64 4, !8, i64 8, !7, i64 16}
!14 = !{!"p2 _ZTS15AVFrameSideData", !15, i64 0}
!15 = !{!"any p2 pointer", !7, i64 0}
!16 = !{!"AVFilterFormatsConfig", !17, i64 0, !17, i64 8, !18, i64 16, !17, i64 24, !17, i64 32}
!17 = !{!"p1 _ZTS15AVFilterFormats", !7, i64 0}
!18 = !{!"p1 _ZTS22AVFilterChannelLayouts", !7, i64 0}
!19 = !{!20, !7, i64 72}
!20 = !{!"AVFilterContext", !21, i64 0, !22, i64 8, !23, i64 16, !10, i64 24, !24, i64 32, !11, i64 40, !10, i64 48, !24, i64 56, !11, i64 64, !7, i64 72, !25, i64 80, !11, i64 88, !11, i64 92, !26, i64 96, !23, i64 104, !7, i64 112, !27, i64 120, !11, i64 128, !28, i64 136, !11, i64 144, !11, i64 148}
!21 = !{!"p1 _ZTS7AVClass", !7, i64 0}
!22 = !{!"p1 _ZTS8AVFilter", !7, i64 0}
!23 = !{!"p1 omnipotent char", !7, i64 0}
!24 = !{!"p2 _ZTS12AVFilterLink", !15, i64 0}
!25 = !{!"p1 _ZTS13AVFilterGraph", !7, i64 0}
!26 = !{!"p1 _ZTS15AVFilterCommand", !7, i64 0}
!27 = !{!"p1 double", !7, i64 0}
!28 = !{!"p1 _ZTS11AVBufferRef", !7, i64 0}
!29 = !{!20, !24, i64 56}
!30 = !{!31, !31, i64 0}
!31 = !{!"p1 _ZTS12AVFilterLink", !7, i64 0}
!32 = !{!5, !11, i64 44}
!33 = !{!34, !11, i64 108}
!34 = !{!"AVFrame", !8, i64 0, !8, i64 64, !35, i64 96, !11, i64 104, !11, i64 108, !11, i64 112, !11, i64 116, !11, i64 120, !12, i64 124, !36, i64 136, !36, i64 144, !12, i64 152, !11, i64 160, !7, i64 168, !11, i64 176, !11, i64 180, !8, i64 184, !37, i64 248, !11, i64 256, !14, i64 264, !11, i64 272, !11, i64 276, !11, i64 280, !11, i64 284, !11, i64 288, !11, i64 292, !11, i64 296, !36, i64 304, !38, i64 312, !11, i64 320, !28, i64 328, !28, i64 336, !36, i64 344, !36, i64 352, !36, i64 360, !36, i64 368, !7, i64 376, !13, i64 384, !36, i64 408}
!35 = !{!"p2 omnipotent char", !15, i64 0}
!36 = !{!"long", !8, i64 0}
!37 = !{!"p2 _ZTS11AVBufferRef", !15, i64 0}
!38 = !{!"p1 _ZTS12AVDictionary", !7, i64 0}
!39 = !{!34, !11, i64 276}
!40 = !{!41, !11, i64 12}
!41 = !{!"FieldContext", !21, i64 0, !11, i64 8, !11, i64 12}
!42 = !{!41, !11, i64 8}
!43 = !{!11, !11, i64 0}
!44 = !{!23, !23, i64 0}
!45 = distinct !{!45, !46}
!46 = !{!"llvm.loop.mustprogress"}
!47 = !{!5, !6, i64 0}
!48 = !{!20, !24, i64 32}
!49 = !{!5, !11, i64 36}
!50 = !{!5, !11, i64 40}
